target datalayout = "e-m:e-p270:32:32-p271:32:32-p272:64:64-i64:64-i128:128-f80:128-n8:16:32:64-S128"
target triple = "x86_64-pc-linux-gnu"

%struct.lexbor_mem = type { ptr, ptr, i64, i64 }
%struct.lexbor_mem_chunk = type { ptr, i64, i64, ptr, ptr }

; Function Attrs: nounwind uwtable
define hidden ptr @lexbor_mem_chunk_destroy(ptr noundef %0, ptr noundef %1, i1 noundef zeroext %2) #0 {
  %4 = alloca ptr, align 8
  %5 = alloca ptr, align 8
  %6 = alloca ptr, align 8
  %7 = alloca i8, align 1
  store ptr %0, ptr %5, align 8
  store ptr %1, ptr %6, align 8
  %8 = zext i1 %2 to i8
  store i8 %8, ptr %7, align 1
  %9 = load ptr, ptr %6, align 8
  %10 = icmp eq ptr %9, null
  br i1 %10, label %14, label %11

11:                                               ; preds = %3
  %12 = load ptr, ptr %5, align 8
  %13 = icmp eq ptr %12, null
  br i1 %13, label %14, label %15

14:                                               ; preds = %11, %3
  store ptr null, ptr %4, align 8
  br label %35

15:                                               ; preds = %11
  %16 = load ptr, ptr %6, align 8
  %17 = getelementptr inbounds %struct.lexbor_mem_chunk, ptr %16, i32 0, i32 0
  %18 = load ptr, ptr %17, align 8
  %19 = icmp ne ptr %18, null
  br i1 %19, label %20, label %27

20:                                               ; preds = %15
  %21 = load ptr, ptr %6, align 8
  %22 = getelementptr inbounds %struct.lexbor_mem_chunk, ptr %21, i32 0, i32 0
  %23 = load ptr, ptr %22, align 8
  %24 = call ptr @lexbor_free(ptr noundef %23)
  %25 = load ptr, ptr %6, align 8
  %26 = getelementptr inbounds %struct.lexbor_mem_chunk, ptr %25, i32 0, i32 0
  store ptr %24, ptr %26, align 8
  br label %27

27:                                               ; preds = %20, %15
  %28 = load i8, ptr %7, align 1
  %29 = trunc i8 %28 to i1
  br i1 %29, label %30, label %33

30:                                               ; preds = %27
  %31 = load ptr, ptr %6, align 8
  %32 = call ptr @lexbor_free(ptr noundef %31)
  store ptr %32, ptr %4, align 8
  br label %35

33:                                               ; preds = %27
  %34 = load ptr, ptr %6, align 8
  store ptr %34, ptr %4, align 8
  br label %35

35:                                               ; preds = %33, %30, %14
  %36 = load ptr, ptr %4, align 8
  ret ptr %36
}

; Function Attrs: nounwind uwtable
define hidden ptr @lexbor_mem_destroy(ptr noundef %0, i1 noundef zeroext %1) #0 {
  %3 = alloca ptr, align 8
  %4 = alloca ptr, align 8
  %5 = alloca i8, align 1
  %6 = alloca ptr, align 8
  %7 = alloca ptr, align 8
  store ptr %0, ptr %4, align 8
  %8 = zext i1 %1 to i8
  store i8 %8, ptr %5, align 1
  %9 = load ptr, ptr %4, align 8
  %10 = icmp eq ptr %9, null
  br i1 %10, label %11, label %12

11:                                               ; preds = %2
  store ptr null, ptr %3, align 8
  br label %43

12:                                               ; preds = %2
  %13 = load ptr, ptr %4, align 8
  %14 = getelementptr inbounds %struct.lexbor_mem, ptr %13, i32 0, i32 0
  %15 = load ptr, ptr %14, align 8
  %16 = icmp ne ptr %15, null
  br i1 %16, label %17, label %35

17:                                               ; preds = %12
  %18 = load ptr, ptr %4, align 8
  %19 = getelementptr inbounds %struct.lexbor_mem, ptr %18, i32 0, i32 0
  %20 = load ptr, ptr %19, align 8
  store ptr %20, ptr %6, align 8
  br label %21

21:                                               ; preds = %24, %17
  %22 = load ptr, ptr %6, align 8
  %23 = icmp ne ptr %22, null
  br i1 %23, label %24, label %32

24:                                               ; preds = %21
  %25 = load ptr, ptr %6, align 8
  %26 = getelementptr inbounds %struct.lexbor_mem_chunk, ptr %25, i32 0, i32 4
  %27 = load ptr, ptr %26, align 8
  store ptr %27, ptr %7, align 8
  %28 = load ptr, ptr %4, align 8
  %29 = load ptr, ptr %6, align 8
  %30 = call ptr @lexbor_mem_chunk_destroy(ptr noundef %28, ptr noundef %29, i1 noundef zeroext true)
  %31 = load ptr, ptr %7, align 8
  store ptr %31, ptr %6, align 8
  br label %21

32:                                               ; preds = %21
  %33 = load ptr, ptr %4, align 8
  %34 = getelementptr inbounds %struct.lexbor_mem, ptr %33, i32 0, i32 0
  store ptr null, ptr %34, align 8
  br label %35

35:                                               ; preds = %32, %12
  %36 = load i8, ptr %5, align 1
  %37 = trunc i8 %36 to i1
  br i1 %37, label %38, label %41

38:                                               ; preds = %35
  %39 = load ptr, ptr %4, align 8
  %40 = call ptr @lexbor_free(ptr noundef %39)
  store ptr %40, ptr %3, align 8
  br label %43

41:                                               ; preds = %35
  %42 = load ptr, ptr %4, align 8
  store ptr %42, ptr %3, align 8
  br label %43

43:                                               ; preds = %41, %38, %11
  %44 = load ptr, ptr %3, align 8
  ret ptr %44
}