; Function Attrs: nounwind uwtable
define hidden ptr @lexbor_mem_destroy(ptr noundef %0, i1 noundef zeroext %1) local_unnamed_addr #0 {
  %3 = icmp eq ptr %0, null
  br i1 %3, label %16, label %4

4:                                                ; preds = %2
  %5 = load ptr, ptr %0, align 8
  %.not = icmp eq ptr %5, null
  br i1 %.not, label %13, label %.preheader

.preheader:                                       ; preds = %4, %lexbor_mem_chunk_destroy.exit
  %.01216 = phi ptr [ %7, %lexbor_mem_chunk_destroy.exit ], [ %5, %4 ]
  %6 = getelementptr inbounds i8, ptr %.01216, i64 32
  %7 = load ptr, ptr %6, align 8
  %8 = load ptr, ptr %.01216, align 8
  %.not.i = icmp eq ptr %8, null
  br i1 %.not.i, label %lexbor_mem_chunk_destroy.exit, label %9

9:                                                ; preds = %.preheader
  %10 = tail call ptr @lexbor_free(ptr noundef nonnull %8) #6
  store ptr %10, ptr %.01216, align 8
  br label %lexbor_mem_chunk_destroy.exit

lexbor_mem_chunk_destroy.exit:                    ; preds = %.preheader, %9
  %11 = tail call ptr @lexbor_free(ptr noundef nonnull %.01216) #6
  %.not15 = icmp eq ptr %7, null
  br i1 %.not15, label %12, label %.preheader

12:                                               ; preds = %lexbor_mem_chunk_destroy.exit
  store ptr null, ptr %0, align 8
  br label %13

13:                                               ; preds = %12, %4
  br i1 %1, label %14, label %16

14:                                               ; preds = %13
  %15 = tail call ptr @lexbor_free(ptr noundef nonnull %0) #6
  br label %16

16:                                               ; preds = %13, %2, %14
  %.0 = phi ptr [ %15, %14 ], [ null, %2 ], [ %0, %13 ]
  ret ptr %.0
}